target datalayout = "e-m:e-p270:32:32-p271:32:32-p272:64:64-i64:64-i128:128-f80:128-n8:16:32:64-S128"
target triple = "x86_64-pc-linux-gnu"

%"struct.absl::random_internal::DistributionMoments" = type { i64, double, double, double, double }
%"class.absl::Span" = type { ptr, i64 }

; Function Attrs: mustprogress nounwind uwtable
define linkonce_odr dso_local noundef i64 @_ZNK4absl4SpanIKdE4sizeEv(ptr noundef nonnull align 8 dereferenceable(16) %0) #0 comdat align 2 {
  %2 = alloca ptr, align 8
  store ptr %0, ptr %2, align 8, !tbaa !4
  %3 = load ptr, ptr %2, align 8
  %4 = getelementptr inbounds nuw %"class.absl::Span", ptr %3, i32 0, i32 1
  %5 = load i64, ptr %4, align 8, !tbaa !52
  ret i64 %5
}

; Function Attrs: mustprogress nounwind uwtable
define linkonce_odr dso_local noundef ptr @_ZNK4absl4SpanIKdE4dataEv(ptr noundef nonnull align 8 dereferenceable(16) %0) #0 comdat align 2 {
  %2 = alloca ptr, align 8
  store ptr %0, ptr %2, align 8, !tbaa !4
  %3 = load ptr, ptr %2, align 8
  %4 = getelementptr inbounds nuw %"class.absl::Span", ptr %3, i32 0, i32 0
  %5 = load ptr, ptr %4, align 8, !tbaa !50
  ret ptr %5
}

; Function Attrs: mustprogress nounwind uwtable
define linkonce_odr dso_local noundef ptr @_ZNK4absl4SpanIKdE3endEv(ptr noundef nonnull align 8 dereferenceable(16) %0) #0 comdat align 2 {
  %2 = alloca ptr, align 8
  store ptr %0, ptr %2, align 8, !tbaa !4
  %3 = load ptr, ptr %2, align 8
  %4 = call noundef ptr @_ZNK4absl4SpanIKdE4dataEv(ptr noundef nonnull align 8 dereferenceable(16) %3) #12
  %5 = call noundef i64 @_ZNK4absl4SpanIKdE4sizeEv(ptr noundef nonnull align 8 dereferenceable(16) %3) #12
  %6 = getelementptr inbounds nuw double, ptr %4, i64 %5
  ret ptr %6
}

; Function Attrs: mustprogress nounwind uwtable
define linkonce_odr dso_local noundef ptr @_ZNK4absl4SpanIKdE5beginEv(ptr noundef nonnull align 8 dereferenceable(16) %0) #0 comdat align 2 {
  %2 = alloca ptr, align 8
  store ptr %0, ptr %2, align 8, !tbaa !4
  %3 = load ptr, ptr %2, align 8
  %4 = call noundef ptr @_ZNK4absl4SpanIKdE4dataEv(ptr noundef nonnull align 8 dereferenceable(16) %3) #12
  ret ptr %4
}

; Function Attrs: inlinehint mustprogress nounwind uwtable
define linkonce_odr dso_local void @_ZN4absl15random_internal19DistributionMomentsC2Ev(ptr noundef nonnull align 8 dereferenceable(40) %0) unnamed_addr #1 comdat align 2 {
  %2 = alloca ptr, align 8
  store ptr %0, ptr %2, align 8, !tbaa !22
  %3 = load ptr, ptr %2, align 8
  %4 = getelementptr inbounds nuw %"struct.absl::random_internal::DistributionMoments", ptr %3, i32 0, i32 0
  store i64 0, ptr %4, align 8, !tbaa !13
  %5 = getelementptr inbounds nuw %"struct.absl::random_internal::DistributionMoments", ptr %3, i32 0, i32 1
  store double 0.000000e+00, ptr %5, align 8, !tbaa !16
  %6 = getelementptr inbounds nuw %"struct.absl::random_internal::DistributionMoments", ptr %3, i32 0, i32 2
  store double 0.000000e+00, ptr %6, align 8, !tbaa !17
  %7 = getelementptr inbounds nuw %"struct.absl::random_internal::DistributionMoments", ptr %3, i32 0, i32 3
  store double 0.000000e+00, ptr %7, align 8, !tbaa !18
  %8 = getelementptr inbounds nuw %"struct.absl::random_internal::DistributionMoments", ptr %3, i32 0, i32 4
  store double 0.000000e+00, ptr %8, align 8, !tbaa !19
  ret void
}

; Function Attrs: mustprogress nounwind uwtable
define dso_local void @_ZN4absl15random_internal26ComputeDistributionMomentsENS_4SpanIKdEE(ptr dead_on_unwind noalias writable sret(%"struct.absl::random_internal::DistributionMoments") align 8 %0, ptr %1, i64 %2) #0 {
  %4 = alloca %"class.absl::Span", align 8
  %5 = alloca ptr, align 8
  %6 = alloca ptr, align 8
  %7 = alloca ptr, align 8
  %8 = alloca double, align 8
  %9 = alloca ptr, align 8
  %10 = alloca ptr, align 8
  %11 = alloca ptr, align 8
  %12 = alloca double, align 8
  %13 = alloca double, align 8
  %14 = getelementptr inbounds nuw { ptr, i64 }, ptr %4, i32 0, i32 0
  store ptr %1, ptr %14, align 8
  %15 = getelementptr inbounds nuw { ptr, i64 }, ptr %4, i32 0, i32 1
  store i64 %2, ptr %15, align 8
  call void @_ZN4absl15random_internal19DistributionMomentsC2Ev(ptr noundef nonnull align 8 dereferenceable(40) %0) #12
  call void @llvm.lifetime.start.p0(i64 8, ptr %5) #12
  store ptr %4, ptr %5, align 8, !tbaa !4
  call void @llvm.lifetime.start.p0(i64 8, ptr %6) #12
  %16 = load ptr, ptr %5, align 8, !tbaa !4
  %17 = call noundef ptr @_ZNK4absl4SpanIKdE5beginEv(ptr noundef nonnull align 8 dereferenceable(16) %16) #12
  store ptr %17, ptr %6, align 8, !tbaa !9
  call void @llvm.lifetime.start.p0(i64 8, ptr %7) #12
  %18 = load ptr, ptr %5, align 8, !tbaa !4
  %19 = call noundef ptr @_ZNK4absl4SpanIKdE3endEv(ptr noundef nonnull align 8 dereferenceable(16) %18) #12
  store ptr %19, ptr %7, align 8, !tbaa !9
  br label %20

20:                                               ; preds = %35, %3
  %21 = load ptr, ptr %6, align 8, !tbaa !9
  %22 = load ptr, ptr %7, align 8, !tbaa !9
  %23 = icmp ne ptr %21, %22
  br i1 %23, label %25, label %24

24:                                               ; preds = %20
  call void @llvm.lifetime.end.p0(i64 8, ptr %7) #12
  call void @llvm.lifetime.end.p0(i64 8, ptr %6) #12
  call void @llvm.lifetime.end.p0(i64 8, ptr %5) #12
  br label %38

25:                                               ; preds = %20
  call void @llvm.lifetime.start.p0(i64 8, ptr %8) #12
  %26 = load ptr, ptr %6, align 8, !tbaa !9
  %27 = load double, ptr %26, align 8, !tbaa !11
  store double %27, ptr %8, align 8, !tbaa !11
  %28 = getelementptr inbounds nuw %"struct.absl::random_internal::DistributionMoments", ptr %0, i32 0, i32 0
  %29 = load i64, ptr %28, align 8, !tbaa !13
  %30 = add i64 %29, 1
  store i64 %30, ptr %28, align 8, !tbaa !13
  %31 = load double, ptr %8, align 8, !tbaa !11
  %32 = getelementptr inbounds nuw %"struct.absl::random_internal::DistributionMoments", ptr %0, i32 0, i32 1
  %33 = load double, ptr %32, align 8, !tbaa !16
  %34 = fadd double %33, %31
  store double %34, ptr %32, align 8, !tbaa !16
  call void @llvm.lifetime.end.p0(i64 8, ptr %8) #12
  br label %35

35:                                               ; preds = %25
  %36 = load ptr, ptr %6, align 8, !tbaa !9
  %37 = getelementptr inbounds nuw double, ptr %36, i32 1
  store ptr %37, ptr %6, align 8, !tbaa !9
  br label %20

38:                                               ; preds = %24
  %39 = getelementptr inbounds nuw %"struct.absl::random_internal::DistributionMoments", ptr %0, i32 0, i32 0
  %40 = load i64, ptr %39, align 8, !tbaa !13
  %41 = uitofp i64 %40 to double
  %42 = getelementptr inbounds nuw %"struct.absl::random_internal::DistributionMoments", ptr %0, i32 0, i32 1
  %43 = load double, ptr %42, align 8, !tbaa !16
  %44 = fdiv double %43, %41
  store double %44, ptr %42, align 8, !tbaa !16
  call void @llvm.lifetime.start.p0(i64 8, ptr %9) #12
  store ptr %4, ptr %9, align 8, !tbaa !4
  call void @llvm.lifetime.start.p0(i64 8, ptr %10) #12
  %45 = load ptr, ptr %9, align 8, !tbaa !4
  %46 = call noundef ptr @_ZNK4absl4SpanIKdE5beginEv(ptr noundef nonnull align 8 dereferenceable(16) %45) #12
  store ptr %46, ptr %10, align 8, !tbaa !9
  call void @llvm.lifetime.start.p0(i64 8, ptr %11) #12
  %47 = load ptr, ptr %9, align 8, !tbaa !4
  %48 = call noundef ptr @_ZNK4absl4SpanIKdE3endEv(ptr noundef nonnull align 8 dereferenceable(16) %47) #12
  store ptr %48, ptr %11, align 8, !tbaa !9
  br label %49

49:                                               ; preds = %82, %38
  %50 = load ptr, ptr %10, align 8, !tbaa !9
  %51 = load ptr, ptr %11, align 8, !tbaa !9
  %52 = icmp ne ptr %50, %51
  br i1 %52, label %54, label %53

53:                                               ; preds = %49
  call void @llvm.lifetime.end.p0(i64 8, ptr %11) #12
  call void @llvm.lifetime.end.p0(i64 8, ptr %10) #12
  call void @llvm.lifetime.end.p0(i64 8, ptr %9) #12
  br label %85

54:                                               ; preds = %49
  call void @llvm.lifetime.start.p0(i64 8, ptr %12) #12
  %55 = load ptr, ptr %10, align 8, !tbaa !9
  %56 = load double, ptr %55, align 8, !tbaa !11
  store double %56, ptr %12, align 8, !tbaa !11
  call void @llvm.lifetime.start.p0(i64 8, ptr %13) #12
  %57 = load double, ptr %12, align 8, !tbaa !11
  %58 = getelementptr inbounds nuw %"struct.absl::random_internal::DistributionMoments", ptr %0, i32 0, i32 1
  %59 = load double, ptr %58, align 8, !tbaa !16
  %60 = fsub double %57, %59
  store double %60, ptr %13, align 8, !tbaa !11
  %61 = load double, ptr %13, align 8, !tbaa !11
  %62 = load double, ptr %13, align 8, !tbaa !11
  %63 = getelementptr inbounds nuw %"struct.absl::random_internal::DistributionMoments", ptr %0, i32 0, i32 2
  %64 = load double, ptr %63, align 8, !tbaa !17
  %65 = call double @llvm.fmuladd.f64(double %61, double %62, double %64)
  store double %65, ptr %63, align 8, !tbaa !17
  %66 = load double, ptr %13, align 8, !tbaa !11
  %67 = load double, ptr %13, align 8, !tbaa !11
  %68 = fmul double %66, %67
  %69 = load double, ptr %13, align 8, !tbaa !11
  %70 = getelementptr inbounds nuw %"struct.absl::random_internal::DistributionMoments", ptr %0, i32 0, i32 3
  %71 = load double, ptr %70, align 8, !tbaa !18
  %72 = call double @llvm.fmuladd.f64(double %68, double %69, double %71)
  store double %72, ptr %70, align 8, !tbaa !18
  %73 = load double, ptr %13, align 8, !tbaa !11
  %74 = load double, ptr %13, align 8, !tbaa !11
  %75 = fmul double %73, %74
  %76 = load double, ptr %13, align 8, !tbaa !11
  %77 = fmul double %75, %76
  %78 = load double, ptr %13, align 8, !tbaa !11
  %79 = getelementptr inbounds nuw %"struct.absl::random_internal::DistributionMoments", ptr %0, i32 0, i32 4
  %80 = load double, ptr %79, align 8, !tbaa !19
  %81 = call double @llvm.fmuladd.f64(double %77, double %78, double %80)
  store double %81, ptr %79, align 8, !tbaa !19
  call void @llvm.lifetime.end.p0(i64 8, ptr %13) #12
  call void @llvm.lifetime.end.p0(i64 8, ptr %12) #12
  br label %82

82:                                               ; preds = %54
  %83 = load ptr, ptr %10, align 8, !tbaa !9
  %84 = getelementptr inbounds nuw double, ptr %83, i32 1
  store ptr %84, ptr %10, align 8, !tbaa !9
  br label %49

85:                                               ; preds = %53
  %86 = getelementptr inbounds nuw %"struct.absl::random_internal::DistributionMoments", ptr %0, i32 0, i32 0
  %87 = load i64, ptr %86, align 8, !tbaa !13
  %88 = sub i64 %87, 1
  %89 = uitofp i64 %88 to double
  %90 = getelementptr inbounds nuw %"struct.absl::random_internal::DistributionMoments", ptr %0, i32 0, i32 2
  %91 = load double, ptr %90, align 8, !tbaa !17
  %92 = fdiv double %91, %89
  store double %92, ptr %90, align 8, !tbaa !17
  %93 = getelementptr inbounds nuw %"struct.absl::random_internal::DistributionMoments", ptr %0, i32 0, i32 0
  %94 = load i64, ptr %93, align 8, !tbaa !13
  %95 = uitofp i64 %94 to double
  %96 = getelementptr inbounds nuw %"struct.absl::random_internal::DistributionMoments", ptr %0, i32 0, i32 3
  %97 = load double, ptr %96, align 8, !tbaa !18
  %98 = fdiv double %97, %95
  store double %98, ptr %96, align 8, !tbaa !18
  %99 = getelementptr inbounds nuw %"struct.absl::random_internal::DistributionMoments", ptr %0, i32 0, i32 2
  %100 = load double, ptr %99, align 8, !tbaa !17
  %101 = call double @pow(double noundef %100, double noundef 1.500000e+00) #12, !tbaa !20
  %102 = getelementptr inbounds nuw %"struct.absl::random_internal::DistributionMoments", ptr %0, i32 0, i32 3
  %103 = load double, ptr %102, align 8, !tbaa !18
  %104 = fdiv double %103, %101
  store double %104, ptr %102, align 8, !tbaa !18
  %105 = getelementptr inbounds nuw %"struct.absl::random_internal::DistributionMoments", ptr %0, i32 0, i32 0
  %106 = load i64, ptr %105, align 8, !tbaa !13
  %107 = uitofp i64 %106 to double
  %108 = getelementptr inbounds nuw %"struct.absl::random_internal::DistributionMoments", ptr %0, i32 0, i32 4
  %109 = load double, ptr %108, align 8, !tbaa !19
  %110 = fdiv double %109, %107
  store double %110, ptr %108, align 8, !tbaa !19
  %111 = getelementptr inbounds nuw %"struct.absl::random_internal::DistributionMoments", ptr %0, i32 0, i32 2
  %112 = load double, ptr %111, align 8, !tbaa !17
  %113 = call double @pow(double noundef %112, double noundef 2.000000e+00) #12, !tbaa !20
  %114 = getelementptr inbounds nuw %"struct.absl::random_internal::DistributionMoments", ptr %0, i32 0, i32 4
  %115 = load double, ptr %114, align 8, !tbaa !19
  %116 = fdiv double %115, %113
  store double %116, ptr %114, align 8, !tbaa !19
  ret void
}