; Function Attrs: mustprogress nofree nounwind memory(write, argmem: readwrite) uwtable
define dso_local void @_ZN4absl15random_internal26ComputeDistributionMomentsENS_4SpanIKdEE(ptr dead_on_unwind noalias writable writeonly sret(%"struct.absl::random_internal::DistributionMoments") align 8 captures(none) initializes((0, 16)) %0, ptr readonly captures(address) %1, i64 %2) local_unnamed_addr #0 {
  tail call void @llvm.memset.p0.i64(ptr noundef nonnull align 8 dereferenceable(40) %0, i8 0, i64 16, i1 false)
  %4 = getelementptr inbounds nuw double, ptr %1, i64 %2
  %.not29 = icmp eq i64 %2, 0
  br i1 %.not29, label %.thread, label %.lr.ph

.thread:                                          ; preds = %3
  %5 = getelementptr inbounds nuw i8, ptr %0, i64 8
  store double 0x7FF8000000000000, ptr %5, align 8, !tbaa !4
  br label %._crit_edge37

6:                                                ; preds = %.lr.ph
  store i64 %13, ptr %0, align 8
  %7 = uitofp nneg i64 %13 to double
  %8 = getelementptr inbounds nuw i8, ptr %0, i64 8
  %9 = fdiv double %14, %7
  store double %9, ptr %8, align 8, !tbaa !4
  br label %.lr.ph36

.lr.ph:                                           ; preds = %3, %.lr.ph
  %10 = phi double [ %14, %.lr.ph ], [ 0.000000e+00, %3 ]
  %.030 = phi ptr [ %15, %.lr.ph ], [ %1, %3 ]
  %11 = phi i64 [ %13, %.lr.ph ], [ 0, %3 ]
  %12 = load double, ptr %.030, align 8, !tbaa !10
  %13 = add nuw nsw i64 %11, 1
  %14 = fadd double %12, %10
  %15 = getelementptr inbounds nuw i8, ptr %.030, i64 8
  %.not = icmp eq ptr %15, %4
  br i1 %.not, label %6, label %.lr.ph

._crit_edge37.loopexit:                           ; preds = %.lr.ph36
  %16 = uitofp nneg i64 %11 to double
  %17 = fdiv double %35, %16
  br label %._crit_edge37

._crit_edge37:                                    ; preds = %._crit_edge37.loopexit, %.thread
  %18 = phi double [ 0.000000e+00, %.thread ], [ %7, %._crit_edge37.loopexit ]
  %19 = phi double [ 0.000000e+00, %.thread ], [ %39, %._crit_edge37.loopexit ]
  %20 = phi double [ 0.000000e+00, %.thread ], [ %37, %._crit_edge37.loopexit ]
  %21 = phi double [ 0.000000e+00, %.thread ], [ %17, %._crit_edge37.loopexit ]
  %22 = getelementptr inbounds nuw i8, ptr %0, i64 16
  store double %21, ptr %22, align 8, !tbaa !11
  %23 = getelementptr inbounds nuw i8, ptr %0, i64 24
  %24 = fdiv double %20, %18
  %25 = tail call double @pow(double noundef %21, double noundef 1.500000e+00) #15, !tbaa !12
  %26 = fdiv double %24, %25
  store double %26, ptr %23, align 8, !tbaa !14
  %27 = getelementptr inbounds nuw i8, ptr %0, i64 32
  %28 = fdiv double %19, %18
  %square = fmul double %21, %21
  %29 = fdiv double %28, %square
  store double %29, ptr %27, align 8, !tbaa !15
  ret void

.lr.ph36:                                         ; preds = %6, %.lr.ph36
  %30 = phi double [ %39, %.lr.ph36 ], [ 0.000000e+00, %6 ]
  %31 = phi double [ %37, %.lr.ph36 ], [ 0.000000e+00, %6 ]
  %32 = phi double [ %35, %.lr.ph36 ], [ 0.000000e+00, %6 ]
  %.02334 = phi ptr [ %40, %.lr.ph36 ], [ %1, %6 ]
  %33 = load double, ptr %.02334, align 8, !tbaa !10
  %34 = fsub double %33, %9
  %35 = tail call double @llvm.fmuladd.f64(double %34, double %34, double %32)
  %36 = fmul double %34, %34
  %37 = tail call double @llvm.fmuladd.f64(double %36, double %34, double %31)
  %38 = fmul double %34, %36
  %39 = tail call double @llvm.fmuladd.f64(double %38, double %34, double %30)
  %40 = getelementptr inbounds nuw i8, ptr %.02334, i64 8
  %.not24 = icmp eq ptr %40, %4
  br i1 %.not24, label %._crit_edge37.loopexit, label %.lr.ph36
}